; Function Attrs: nounwind uwtable
define ptr @Gia_ManDupPosAndPropagateInit(ptr noundef readonly captures(none) %0) local_unnamed_addr #0 {
  %2 = getelementptr i8, ptr %0, i64 24
  %.val = load i32, ptr %2, align 8, !tbaa !49
  %3 = tail call ptr @Gia_ManStart(i32 noundef %.val) #17
  %4 = load ptr, ptr %0, align 8, !tbaa !27
  %.not.i = icmp eq ptr %4, null
  br i1 %.not.i, label %Abc_UtilStrsav.exit, label %5

5:                                                ; preds = %1
  %6 = tail call i64 @strlen(ptr noundef nonnull readonly dereferenceable(1) %4) #18
  %7 = add i64 %6, 1
  %8 = tail call noalias ptr @malloc(i64 noundef %7) #19
  %9 = tail call ptr @strcpy(ptr noundef nonnull dereferenceable(1) %8, ptr noundef nonnull readonly dereferenceable(1) %4) #17
  br label %Abc_UtilStrsav.exit

Abc_UtilStrsav.exit:                              ; preds = %1, %5
  %10 = phi ptr [ %8, %5 ], [ null, %1 ]
  store ptr %10, ptr %3, align 8, !tbaa !27
  %11 = getelementptr inbounds nuw i8, ptr %0, i64 8
  %12 = load ptr, ptr %11, align 8, !tbaa !50
  %.not.i41 = icmp eq ptr %12, null
  br i1 %.not.i41, label %Abc_UtilStrsav.exit42, label %13

13:                                               ; preds = %Abc_UtilStrsav.exit
  %14 = tail call i64 @strlen(ptr noundef nonnull readonly dereferenceable(1) %12) #18
  %15 = add i64 %14, 1
  %16 = tail call noalias ptr @malloc(i64 noundef %15) #19
  %17 = tail call ptr @strcpy(ptr noundef nonnull dereferenceable(1) %16, ptr noundef nonnull readonly dereferenceable(1) %12) #17
  br label %Abc_UtilStrsav.exit42

Abc_UtilStrsav.exit42:                            ; preds = %Abc_UtilStrsav.exit, %13
  %18 = phi ptr [ %16, %13 ], [ null, %Abc_UtilStrsav.exit ]
  %19 = getelementptr inbounds nuw i8, ptr %3, i64 8
  store ptr %18, ptr %19, align 8, !tbaa !50
  %20 = getelementptr i8, ptr %0, i64 32
  %.val35 = load ptr, ptr %20, align 8, !tbaa !51
  %21 = getelementptr inbounds nuw i8, ptr %.val35, i64 8
  store i32 0, ptr %21, align 4, !tbaa !52
  tail call void @Gia_ManHashAlloc(ptr noundef nonnull %3) #17
  %22 = load i32, ptr %2, align 8, !tbaa !49
  %23 = icmp sgt i32 %22, 1
  br i1 %23, label %.lr.ph, label %.critedge

.lr.ph:                                           ; preds = %Abc_UtilStrsav.exit42
  %24 = getelementptr i8, ptr %0, i64 16
  %25 = getelementptr i8, ptr %0, i64 72
  %26 = getelementptr i8, ptr %0, i64 64
  br label %27

27:                                               ; preds = %.lr.ph, %Gia_ObjIsPo.exit.thread
  %indvars.iv = phi i64 [ 1, %.lr.ph ], [ %indvars.iv.next, %Gia_ObjIsPo.exit.thread ]
  %.val36 = load ptr, ptr %20, align 8, !tbaa !51
  %28 = getelementptr inbounds nuw %struct.Gia_Obj_t_, ptr %.val36, i64 %indvars.iv
  %.val37 = load i64, ptr %28, align 4
  %29 = and i64 %.val37, 2147483648
  %.not.i43 = icmp eq i64 %29, 0
  %30 = and i64 %.val37, 536870911
  %31 = icmp ne i64 %30, 536870911
  %narrow.i = and i1 %.not.i43, %31
  br i1 %narrow.i, label %32, label %51

32:                                               ; preds = %27
  %33 = sub nsw i64 0, %30
  %34 = getelementptr inbounds %struct.Gia_Obj_t_, ptr %28, i64 %33, i32 1
  %35 = load i32, ptr %34, align 4, !tbaa !52
  %36 = trunc i64 %.val37 to i32
  %37 = lshr i32 %36, 29
  %38 = and i32 %37, 1
  %39 = xor i32 %35, %38
  %40 = lshr i64 %.val37, 32
  %41 = and i64 %40, 536870911
  %42 = sub nsw i64 0, %41
  %43 = getelementptr inbounds %struct.Gia_Obj_t_, ptr %28, i64 %42, i32 1
  %44 = load i32, ptr %43, align 4, !tbaa !52
  %45 = lshr i64 %.val37, 61
  %46 = trunc nuw nsw i64 %45 to i32
  %47 = and i32 %46, 1
  %48 = xor i32 %44, %47
  %49 = tail call i32 @Gia_ManHashAnd(ptr noundef nonnull %3, i32 noundef %39, i32 noundef %48) #17
  %50 = getelementptr inbounds nuw i8, ptr %28, i64 8
  store i32 %49, ptr %50, align 4, !tbaa !52
  br label %Gia_ObjIsPo.exit.thread

51:                                               ; preds = %27
  %52 = and i64 %.val37, 2684354559
  %narrow.i.not.i = icmp eq i64 %52, 2684354559
  br i1 %narrow.i.not.i, label %Gia_ObjIsPi.exit, label %63

Gia_ObjIsPi.exit:                                 ; preds = %51
  %53 = lshr i64 %.val37, 32
  %54 = trunc nuw i64 %53 to i32
  %55 = and i32 %54, 536870911
  %.val3.i = load i32, ptr %24, align 8, !tbaa !60
  %.val4.i = load ptr, ptr %26, align 8, !tbaa !61
  %56 = getelementptr i8, ptr %.val4.i, i64 4
  %.val4.val.i = load i32, ptr %56, align 4, !tbaa !62
  %57 = sub nsw i32 %.val4.val.i, %.val3.i
  %.not52 = icmp slt i32 %55, %57
  br i1 %.not52, label %58, label %61

58:                                               ; preds = %Gia_ObjIsPi.exit
  %59 = tail call fastcc i32 @Gia_ManAppendCi(ptr noundef nonnull %3)
  %60 = getelementptr inbounds nuw i8, ptr %28, i64 8
  store i32 %59, ptr %60, align 4, !tbaa !52
  br label %Gia_ObjIsPo.exit.thread

61:                                               ; preds = %Gia_ObjIsPi.exit
  %62 = getelementptr inbounds nuw i8, ptr %28, i64 8
  store i32 0, ptr %62, align 4, !tbaa !52
  br label %Gia_ObjIsPo.exit.thread

63:                                               ; preds = %51
  %64 = icmp eq i64 %30, 536870911
  %narrow.i.not.i45 = or i1 %.not.i43, %64
  br i1 %narrow.i.not.i45, label %Gia_ObjIsPo.exit.thread, label %Gia_ObjIsPo.exit

Gia_ObjIsPo.exit:                                 ; preds = %63
  %65 = lshr i64 %.val37, 32
  %66 = trunc nuw i64 %65 to i32
  %67 = and i32 %66, 536870911
  %.val3.i46 = load i32, ptr %24, align 8, !tbaa !60
  %.val4.i47 = load ptr, ptr %25, align 8, !tbaa !65
  %68 = getelementptr i8, ptr %.val4.i47, i64 4
  %.val4.val.i48 = load i32, ptr %68, align 4, !tbaa !62
  %69 = sub nsw i32 %.val4.val.i48, %.val3.i46
  %.not = icmp slt i32 %67, %69
  br i1 %.not, label %70, label %Gia_ObjIsPo.exit.thread

70:                                               ; preds = %Gia_ObjIsPo.exit
  %71 = sub nsw i64 0, %30
  %72 = getelementptr inbounds %struct.Gia_Obj_t_, ptr %28, i64 %71, i32 1
  %73 = load i32, ptr %72, align 4, !tbaa !52
  %74 = trunc i64 %.val37 to i32
  %75 = lshr i32 %74, 29
  %76 = and i32 %75, 1
  %77 = xor i32 %73, %76
  %78 = tail call fastcc i32 @Gia_ManAppendCo(ptr noundef nonnull %3, i32 noundef %77)
  br label %Gia_ObjIsPo.exit.thread

Gia_ObjIsPo.exit.thread:                          ; preds = %63, %32, %61, %70, %Gia_ObjIsPo.exit, %58
  %indvars.iv.next = add nuw nsw i64 %indvars.iv, 1
  %79 = load i32, ptr %2, align 8, !tbaa !49
  %80 = sext i32 %79 to i64
  %81 = icmp slt i64 %indvars.iv.next, %80
  br i1 %81, label %27, label %.critedge, !llvm.loop !75

.critedge:                                        ; preds = %Gia_ObjIsPo.exit.thread, %Abc_UtilStrsav.exit42
  tail call void @Gia_ManHashStop(ptr noundef nonnull %3) #17
  %82 = tail call ptr @Gia_ManCleanup(ptr noundef nonnull %3) #17
  tail call void @Gia_ManStop(ptr noundef nonnull %3) #17
  ret ptr %82
}